; Function Attrs: mustprogress nounwind uwtable
define internal fastcc noundef ptr @"_ZZN12_GLOBAL__N_114AggExprEmitter11VisitBinCmpEPKN5clang14BinaryOperatorEENK3$_2clE11CompareKind"(ptr nocapture noundef nonnull readonly align 8 dereferenceable(40) %0, i32 noundef %1) unnamed_addr #0 align 2 {
  %3 = alloca %"class.llvm::Twine", align 8
  %4 = alloca %"class.llvm::Twine", align 8
  %5 = load ptr, ptr %0, align 8
  %6 = getelementptr inbounds nuw i8, ptr %5, i64 8
  %7 = load ptr, ptr %6, align 8
  %8 = load ptr, ptr %5, align 8
  %9 = getelementptr inbounds nuw i8, ptr %0, i64 8
  %10 = load ptr, ptr %9, align 8
  %11 = load ptr, ptr %10, align 8
  %12 = getelementptr inbounds nuw i8, ptr %0, i64 16
  %13 = load ptr, ptr %12, align 8
  %14 = load ptr, ptr %13, align 8
  %15 = getelementptr inbounds nuw i8, ptr %0, i64 24
  %16 = load ptr, ptr %15, align 8
  %17 = load ptr, ptr %16, align 8
  %18 = getelementptr inbounds nuw i8, ptr %0, i64 32
  %19 = load ptr, ptr %18, align 8
  %20 = load i8, ptr %19, align 1
  %21 = trunc i8 %20 to i1
  %22 = select i1 %21, ptr @.str.6, ptr @.str.1
  %23 = getelementptr i8, ptr %11, i64 16
  %.val = load ptr, ptr %23, align 8
  %24 = getelementptr i8, ptr %.val, i64 8
  %.val.val = load i64, ptr %24, align 8
  %25 = tail call fastcc noundef ptr @_ZL11EmitCompareRN5clang7CodeGen11CGBuilderTyERNS0_15CodeGenFunctionEPKNS_14BinaryOperatorEPN4llvm5ValueESA_11CompareKindPKc(ptr noundef nonnull align 8 dereferenceable(160) %7, ptr noundef nonnull align 8 dereferenceable(6488) %8, i64 %.val.val, ptr noundef %14, ptr noundef %17, i32 noundef %1, ptr noundef nonnull %22)
  %26 = load ptr, ptr %18, align 8
  %27 = load i8, ptr %26, align 1
  %28 = trunc i8 %27 to i1
  br i1 %28, label %29, label %68

29:                                               ; preds = %2
  %30 = load ptr, ptr %6, align 8
  %31 = load ptr, ptr %5, align 8
  %32 = load ptr, ptr %9, align 8
  %33 = load ptr, ptr %32, align 8
  %34 = load ptr, ptr %12, align 8
  %35 = getelementptr inbounds nuw i8, ptr %34, i64 8
  %36 = load ptr, ptr %35, align 8
  %37 = load ptr, ptr %15, align 8
  %38 = getelementptr inbounds nuw i8, ptr %37, i64 8
  %39 = load ptr, ptr %38, align 8
  %40 = getelementptr i8, ptr %33, i64 16
  %.val6 = load ptr, ptr %40, align 8
  %41 = getelementptr i8, ptr %.val6, i64 8
  %.val6.val = load i64, ptr %41, align 8
  %42 = tail call fastcc noundef ptr @_ZL11EmitCompareRN5clang7CodeGen11CGBuilderTyERNS0_15CodeGenFunctionEPKNS_14BinaryOperatorEPN4llvm5ValueESA_11CompareKindPKc(ptr noundef nonnull align 8 dereferenceable(160) %30, ptr noundef nonnull align 8 dereferenceable(6488) %31, i64 %.val6.val, ptr noundef %36, ptr noundef %39, i32 noundef %1, ptr noundef nonnull @.str.7)
  %43 = load ptr, ptr %6, align 8
  %44 = getelementptr inbounds nuw i8, ptr %4, i64 32
  %45 = getelementptr inbounds nuw i8, ptr %4, i64 33
  store i8 1, ptr %45, align 1
  store ptr @.str.8, ptr %4, align 8
  store i8 3, ptr %44, align 8
  call void @llvm.lifetime.start.p0(i64 40, ptr nonnull %3)
  %46 = getelementptr inbounds nuw i8, ptr %43, i64 80
  %47 = load ptr, ptr %46, align 8
  %48 = load ptr, ptr %47, align 8
  %49 = getelementptr inbounds i8, ptr %48, i64 16
  %50 = load ptr, ptr %49, align 8
  %51 = tail call noundef ptr %50(ptr noundef nonnull align 8 dereferenceable(8) %47, i32 noundef 28, ptr noundef %25, ptr noundef %42) #15
  %.not.i = icmp eq ptr %51, null
  br i1 %.not.i, label %52, label %_ZN4llvm13IRBuilderBase9CreateAndEPNS_5ValueES2_RKNS_5TwineE.exit

52:                                               ; preds = %29
  %53 = getelementptr inbounds nuw i8, ptr %3, i64 32
  store i16 257, ptr %53, align 8
  %54 = call noundef ptr @_ZN4llvm14BinaryOperator6CreateENS_11Instruction9BinaryOpsEPNS_5ValueES4_RKNS_5TwineENS_14InsertPositionE(i32 noundef 28, ptr noundef %25, ptr noundef %42, ptr noundef nonnull align 8 dereferenceable(34) %3, ptr null, i64 0) #15
  %55 = getelementptr inbounds nuw i8, ptr %43, i64 88
  %56 = load ptr, ptr %55, align 8
  %57 = getelementptr inbounds nuw i8, ptr %43, i64 56
  %.sroa.0.0.copyload.i.i = load ptr, ptr %57, align 8
  %.sroa.2.0..sroa_idx.i.i = getelementptr inbounds i8, ptr %43, i64 64
  %.sroa.2.0.copyload.i.i = load i64, ptr %.sroa.2.0..sroa_idx.i.i, align 8
  %58 = load ptr, ptr %56, align 8
  %59 = getelementptr inbounds i8, ptr %58, i64 16
  %60 = load ptr, ptr %59, align 8
  call void %60(ptr noundef nonnull align 8 dereferenceable(8) %56, ptr noundef %54, ptr noundef nonnull align 8 dereferenceable(34) %4, ptr %.sroa.0.0.copyload.i.i, i64 %.sroa.2.0.copyload.i.i) #15
  %61 = load ptr, ptr %43, align 8
  %62 = call noundef i64 @_ZNK4llvm15SmallVectorBaseIjE4sizeEv(ptr noundef nonnull align 8 dereferenceable(16) %43) #15
  %63 = getelementptr inbounds %"struct.std::pair.1347", ptr %61, i64 %62
  %.not10.i.i.i = icmp eq i64 %62, 0
  br i1 %.not10.i.i.i, label %_ZN4llvm13IRBuilderBase9CreateAndEPNS_5ValueES2_RKNS_5TwineE.exit, label %.lr.ph.i.i.i

.lr.ph.i.i.i:                                     ; preds = %52, %.lr.ph.i.i.i
  %.011.i.i.i = phi ptr [ %67, %.lr.ph.i.i.i ], [ %61, %52 ]
  %64 = load i32, ptr %.011.i.i.i, align 8
  %65 = getelementptr inbounds nuw i8, ptr %.011.i.i.i, i64 8
  %66 = load ptr, ptr %65, align 8
  call void @_ZN4llvm11Instruction11setMetadataEjPNS_6MDNodeE(ptr noundef nonnull align 8 dereferenceable(72) %54, i32 noundef %64, ptr noundef %66) #15
  %67 = getelementptr inbounds i8, ptr %.011.i.i.i, i64 16
  %.not.i.i.i = icmp eq ptr %67, %63
  br i1 %.not.i.i.i, label %_ZN4llvm13IRBuilderBase9CreateAndEPNS_5ValueES2_RKNS_5TwineE.exit, label %.lr.ph.i.i.i

_ZN4llvm13IRBuilderBase9CreateAndEPNS_5ValueES2_RKNS_5TwineE.exit: ; preds = %.lr.ph.i.i.i, %29, %52
  %.0.i = phi ptr [ %51, %29 ], [ %54, %52 ], [ %54, %.lr.ph.i.i.i ]
  call void @llvm.lifetime.end.p0(i64 40, ptr nonnull %3)
  br label %68

68:                                               ; preds = %2, %_ZN4llvm13IRBuilderBase9CreateAndEPNS_5ValueES2_RKNS_5TwineE.exit
  %.0 = phi ptr [ %.0.i, %_ZN4llvm13IRBuilderBase9CreateAndEPNS_5ValueES2_RKNS_5TwineE.exit ], [ %25, %2 ]
  ret ptr %.0
}